target datalayout = "e-m:e-p270:32:32-p271:32:32-p272:64:64-i64:64-i128:128-f80:128-n8:16:32:64-S128"
target triple = "x86_64-pc-linux-gnu"

%class.QString = type { %struct.QArrayDataPointer }
%struct.QArrayDataPointer = type { ptr, ptr, i64 }
%class.QPaintDevice.base = type <{ ptr, i16 }>
%class.TCPStreamDialog = type { %class.GeometryStateDialog, ptr, ptr, %class.QMultiMap, double, i8, %class.QMap, double, i8, %struct.tcp_graph, ptr, %class.QString, ptr, ptr, ptr, ptr, ptr, ptr, ptr, ptr, ptr, ptr, ptr, ptr, ptr, ptr, %class.QRectF, i32, [4 x i8], %class.QTransform, i8, ptr, %class.QPoint, %class.QMenu, %"class.TCPStreamDialog::GraphUpdater", i32, i32, i32, double }
%class.GeometryStateDialog = type { %class.QDialog, %class.QString }
%class.QDialog = type { %class.QWidget }
%class.QWidget = type { %class.QObject, %class.QPaintDevice.base, ptr }
%class.QObject = type { ptr, %class.QScopedPointer }
%class.QScopedPointer = type { ptr }
%class.QMultiMap = type { %"class.QtPrivate::QExplicitlySharedDataPointerV2" }
%"class.QtPrivate::QExplicitlySharedDataPointerV2" = type { ptr }
%class.QMap = type { %"class.QtPrivate::QExplicitlySharedDataPointerV2.5" }
%"class.QtPrivate::QExplicitlySharedDataPointerV2.5" = type { ptr }
%struct.tcp_graph = type { i32, %struct._address, i16, %struct._address, i16, i32, ptr }
%struct._address = type { i32, i32, ptr, ptr }
%class.QRectF = type { double, double, double, double }
%class.QTransform = type <{ [3 x [3 x double]], i16, [6 x i8] }>
%class.QPoint = type { i32, i32 }
%class.QMenu = type { %class.QWidget }
%"class.TCPStreamDialog::GraphUpdater" = type <{ ptr, ptr, i8, [7 x i8] }>

; Function Attrs: mustprogress nounwind uwtable
define internal void @_ZL13clear_addressP8_address(ptr noundef %0) #2 {
  %2 = alloca ptr, align 8
  store ptr %0, ptr %2, align 8
  %3 = load ptr, ptr %2, align 8
  %4 = getelementptr inbounds %struct._address, ptr %3, i32 0, i32 0
  store i32 0, ptr %4, align 8
  %5 = load ptr, ptr %2, align 8
  %6 = getelementptr inbounds %struct._address, ptr %5, i32 0, i32 1
  store i32 0, ptr %6, align 4
  %7 = load ptr, ptr %2, align 8
  %8 = getelementptr inbounds %struct._address, ptr %7, i32 0, i32 2
  store ptr null, ptr %8, align 8
  %9 = load ptr, ptr %2, align 8
  %10 = getelementptr inbounds %struct._address, ptr %9, i32 0, i32 3
  store ptr null, ptr %10, align 8
  ret void
}

; Function Attrs: mustprogress uwtable
define internal void @_ZL18alloc_address_wmemP17_wmem_allocator_tP8_addressiiPKv(ptr noundef %0, ptr noundef %1, i32 noundef %2, i32 noundef %3, ptr noundef %4) #1 {
  %6 = alloca ptr, align 8
  %7 = alloca ptr, align 8
  %8 = alloca i32, align 4
  %9 = alloca i32, align 4
  %10 = alloca ptr, align 8
  store ptr %0, ptr %6, align 8
  store ptr %1, ptr %7, align 8
  store i32 %2, ptr %8, align 4
  store i32 %3, ptr %9, align 4
  store ptr %4, ptr %10, align 8
  br label %11

11:                                               ; preds = %5
  br label %12

12:                                               ; preds = %11
  %13 = load ptr, ptr %7, align 8
  call void @_ZL13clear_addressP8_address(ptr noundef %13)
  %14 = load i32, ptr %8, align 4
  %15 = load ptr, ptr %7, align 8
  %16 = getelementptr inbounds %struct._address, ptr %15, i32 0, i32 0
  store i32 %14, ptr %16, align 8
  %17 = load i32, ptr %9, align 4
  %18 = icmp eq i32 %17, 0
  br i1 %18, label %19, label %22

19:                                               ; preds = %12
  br label %20

20:                                               ; preds = %19
  br label %21

21:                                               ; preds = %20
  br label %39

22:                                               ; preds = %12
  br label %23

23:                                               ; preds = %22
  br label %24

24:                                               ; preds = %23
  br label %25

25:                                               ; preds = %24
  br label %26

26:                                               ; preds = %25
  %27 = load ptr, ptr %6, align 8
  %28 = load ptr, ptr %10, align 8
  %29 = load i32, ptr %9, align 4
  %30 = sext i32 %29 to i64
  %31 = call noalias ptr @wmem_memdup(ptr noundef %27, ptr noundef %28, i64 noundef %30)
  %32 = load ptr, ptr %7, align 8
  %33 = getelementptr inbounds %struct._address, ptr %32, i32 0, i32 3
  store ptr %31, ptr %33, align 8
  %34 = load ptr, ptr %7, align 8
  %35 = getelementptr inbounds %struct._address, ptr %34, i32 0, i32 2
  store ptr %31, ptr %35, align 8
  %36 = load i32, ptr %9, align 4
  %37 = load ptr, ptr %7, align 8
  %38 = getelementptr inbounds %struct._address, ptr %37, i32 0, i32 1
  store i32 %36, ptr %38, align 4
  br label %39

39:                                               ; preds = %26, %21
  ret void
}

; Function Attrs: mustprogress uwtable
define internal void @_ZL17free_address_wmemP17_wmem_allocator_tP8_address(ptr noundef %0, ptr noundef %1) #1 {
  %3 = alloca ptr, align 8
  %4 = alloca ptr, align 8
  store ptr %0, ptr %3, align 8
  store ptr %1, ptr %4, align 8
  %5 = load ptr, ptr %4, align 8
  %6 = getelementptr inbounds %struct._address, ptr %5, i32 0, i32 0
  %7 = load i32, ptr %6, align 8
  %8 = icmp ne i32 %7, 0
  br i1 %8, label %9, label %26

9:                                                ; preds = %2
  %10 = load ptr, ptr %4, align 8
  %11 = getelementptr inbounds %struct._address, ptr %10, i32 0, i32 1
  %12 = load i32, ptr %11, align 4
  %13 = icmp sgt i32 %12, 0
  br i1 %13, label %14, label %26

14:                                               ; preds = %9
  %15 = load ptr, ptr %4, align 8
  %16 = getelementptr inbounds %struct._address, ptr %15, i32 0, i32 3
  %17 = load ptr, ptr %16, align 8
  %18 = icmp ne ptr %17, null
  br i1 %18, label %19, label %26

19:                                               ; preds = %14
  br label %20

20:                                               ; preds = %19
  br label %21

21:                                               ; preds = %20
  %22 = load ptr, ptr %3, align 8
  %23 = load ptr, ptr %4, align 8
  %24 = getelementptr inbounds %struct._address, ptr %23, i32 0, i32 3
  %25 = load ptr, ptr %24, align 8
  call void @wmem_free(ptr noundef %22, ptr noundef %25)
  br label %26

26:                                               ; preds = %21, %14, %9, %2
  %27 = load ptr, ptr %4, align 8
  call void @_ZL13clear_addressP8_address(ptr noundef %27)
  ret void
}

; Function Attrs: mustprogress uwtable
define internal void @_ZL17copy_address_wmemP17_wmem_allocator_tP8_addressPKS1_(ptr noundef %0, ptr noundef %1, ptr noundef %2) #1 {
  %4 = alloca ptr, align 8
  %5 = alloca ptr, align 8
  %6 = alloca ptr, align 8
  store ptr %0, ptr %4, align 8
  store ptr %1, ptr %5, align 8
  store ptr %2, ptr %6, align 8
  %7 = load ptr, ptr %4, align 8
  %8 = load ptr, ptr %5, align 8
  %9 = load ptr, ptr %6, align 8
  %10 = getelementptr inbounds %struct._address, ptr %9, i32 0, i32 0
  %11 = load i32, ptr %10, align 8
  %12 = load ptr, ptr %6, align 8
  %13 = getelementptr inbounds %struct._address, ptr %12, i32 0, i32 1
  %14 = load i32, ptr %13, align 4
  %15 = load ptr, ptr %6, align 8
  %16 = getelementptr inbounds %struct._address, ptr %15, i32 0, i32 2
  %17 = load ptr, ptr %16, align 8
  call void @_ZL18alloc_address_wmemP17_wmem_allocator_tP8_addressiiPKv(ptr noundef %7, ptr noundef %8, i32 noundef %11, i32 noundef %14, ptr noundef %17)
  ret void
}

; Function Attrs: mustprogress uwtable
define internal void @_ZL12free_addressP8_address(ptr noundef %0) #1 {
  %2 = alloca ptr, align 8
  store ptr %0, ptr %2, align 8
  %3 = load ptr, ptr %2, align 8
  call void @_ZL17free_address_wmemP17_wmem_allocator_tP8_address(ptr noundef null, ptr noundef %3)
  ret void
}

; Function Attrs: mustprogress uwtable
define internal void @_ZL12copy_addressP8_addressPKS_(ptr noundef %0, ptr noundef %1) #1 {
  %3 = alloca ptr, align 8
  %4 = alloca ptr, align 8
  store ptr %0, ptr %3, align 8
  store ptr %1, ptr %4, align 8
  %5 = load ptr, ptr %3, align 8
  %6 = load ptr, ptr %4, align 8
  call void @_ZL17copy_address_wmemP17_wmem_allocator_tP8_addressPKS1_(ptr noundef null, ptr noundef %5, ptr noundef %6)
  ret void
}

; Function Attrs: mustprogress uwtable
define void @_ZN15TCPStreamDialog34on_actionSwitchDirection_triggeredEv(ptr noundef nonnull align 8 dereferenceable(584) %0) #1 align 2 {
  %2 = alloca ptr, align 8
  %3 = alloca %struct._address, align 8
  %4 = alloca i16, align 2
  store ptr %0, ptr %2, align 8
  %5 = load ptr, ptr %2, align 8
  %6 = getelementptr inbounds %class.TCPStreamDialog, ptr %5, i32 0, i32 9
  %7 = getelementptr inbounds %struct.tcp_graph, ptr %6, i32 0, i32 1
  call void @_ZL12copy_addressP8_addressPKS_(ptr noundef %3, ptr noundef %7)
  %8 = getelementptr inbounds %class.TCPStreamDialog, ptr %5, i32 0, i32 9
  %9 = getelementptr inbounds %struct.tcp_graph, ptr %8, i32 0, i32 2
  %10 = load i16, ptr %9, align 8
  store i16 %10, ptr %4, align 2
  %11 = getelementptr inbounds %class.TCPStreamDialog, ptr %5, i32 0, i32 9
  %12 = getelementptr inbounds %struct.tcp_graph, ptr %11, i32 0, i32 1
  call void @_ZL12free_addressP8_address(ptr noundef %12)
  %13 = getelementptr inbounds %class.TCPStreamDialog, ptr %5, i32 0, i32 9
  %14 = getelementptr inbounds %struct.tcp_graph, ptr %13, i32 0, i32 1
  %15 = getelementptr inbounds %class.TCPStreamDialog, ptr %5, i32 0, i32 9
  %16 = getelementptr inbounds %struct.tcp_graph, ptr %15, i32 0, i32 3
  call void @_ZL12copy_addressP8_addressPKS_(ptr noundef %14, ptr noundef %16)
  %17 = getelementptr inbounds %class.TCPStreamDialog, ptr %5, i32 0, i32 9
  %18 = getelementptr inbounds %struct.tcp_graph, ptr %17, i32 0, i32 4
  %19 = load i16, ptr %18, align 8
  %20 = getelementptr inbounds %class.TCPStreamDialog, ptr %5, i32 0, i32 9
  %21 = getelementptr inbounds %struct.tcp_graph, ptr %20, i32 0, i32 2
  store i16 %19, ptr %21, align 8
  %22 = getelementptr inbounds %class.TCPStreamDialog, ptr %5, i32 0, i32 9
  %23 = getelementptr inbounds %struct.tcp_graph, ptr %22, i32 0, i32 3
  call void @_ZL12free_addressP8_address(ptr noundef %23)
  %24 = getelementptr inbounds %class.TCPStreamDialog, ptr %5, i32 0, i32 9
  %25 = getelementptr inbounds %struct.tcp_graph, ptr %24, i32 0, i32 3
  call void @_ZL12copy_addressP8_addressPKS_(ptr noundef %25, ptr noundef %3)
  %26 = load i16, ptr %4, align 2
  %27 = getelementptr inbounds %class.TCPStreamDialog, ptr %5, i32 0, i32 9
  %28 = getelementptr inbounds %struct.tcp_graph, ptr %27, i32 0, i32 4
  store i16 %26, ptr %28, align 8
  call void @_ZL12free_addressP8_address(ptr noundef %3)
  call void @_ZN15TCPStreamDialog9fillGraphEbb(ptr noundef nonnull align 8 dereferenceable(584) %5, i1 noundef zeroext true, i1 noundef zeroext false)
  ret void
}