; Function Attrs: mustprogress uwtable
define void @_ZN15TCPStreamDialog34on_actionSwitchDirection_triggeredEv(ptr noundef nonnull align 8 dereferenceable(584) %0) local_unnamed_addr #2 align 2 {
  %2 = getelementptr inbounds i8, ptr %0, i64 136
  %3 = load i32, ptr %2, align 8
  %4 = getelementptr inbounds i8, ptr %0, i64 140
  %5 = load i32, ptr %4, align 4
  %6 = getelementptr inbounds i8, ptr %0, i64 144
  %7 = icmp eq i32 %5, 0
  br i1 %7, label %_ZL12copy_addressP8_addressPKS_.exit.thread, label %_ZL12copy_addressP8_addressPKS_.exit

_ZL12copy_addressP8_addressPKS_.exit.thread:      ; preds = %1
  %8 = getelementptr inbounds i8, ptr %0, i64 160
  %9 = load i16, ptr %8, align 8
  br label %_ZL12free_addressP8_address.exit

_ZL12copy_addressP8_addressPKS_.exit:             ; preds = %1
  %10 = load ptr, ptr %6, align 8
  %11 = sext i32 %5 to i64
  %12 = tail call noalias ptr @wmem_memdup(ptr noundef null, ptr noundef %10, i64 noundef %11)
  %.pre = load i32, ptr %2, align 8
  %.pre24 = load i32, ptr %4, align 4
  %13 = icmp sgt i32 %.pre24, 0
  %14 = getelementptr inbounds i8, ptr %0, i64 160
  %15 = load i16, ptr %14, align 8
  %.not.i.i = icmp ne i32 %.pre, 0
  %or.cond = select i1 %.not.i.i, i1 %13, i1 false
  br i1 %or.cond, label %16, label %_ZL12free_addressP8_address.exit

16:                                               ; preds = %_ZL12copy_addressP8_addressPKS_.exit
  %17 = getelementptr inbounds i8, ptr %0, i64 152
  %18 = load ptr, ptr %17, align 8
  %.not6.i.i = icmp eq ptr %18, null
  br i1 %.not6.i.i, label %_ZL12free_addressP8_address.exit, label %19

19:                                               ; preds = %16
  tail call void @wmem_free(ptr noundef null, ptr noundef nonnull %18)
  br label %_ZL12free_addressP8_address.exit

_ZL12free_addressP8_address.exit:                 ; preds = %_ZL12copy_addressP8_addressPKS_.exit.thread, %_ZL12copy_addressP8_addressPKS_.exit, %16, %19
  %20 = phi i16 [ %9, %_ZL12copy_addressP8_addressPKS_.exit.thread ], [ %15, %_ZL12copy_addressP8_addressPKS_.exit ], [ %15, %16 ], [ %15, %19 ]
  %21 = phi ptr [ %8, %_ZL12copy_addressP8_addressPKS_.exit.thread ], [ %14, %_ZL12copy_addressP8_addressPKS_.exit ], [ %14, %16 ], [ %14, %19 ]
  %.sroa.8.030 = phi ptr [ null, %_ZL12copy_addressP8_addressPKS_.exit.thread ], [ %12, %_ZL12copy_addressP8_addressPKS_.exit ], [ %12, %16 ], [ %12, %19 ]
  %22 = getelementptr inbounds i8, ptr %0, i64 168
  %23 = load i32, ptr %22, align 8
  %24 = getelementptr inbounds i8, ptr %0, i64 172
  %25 = load i32, ptr %24, align 4
  %26 = getelementptr inbounds i8, ptr %0, i64 176
  %27 = load ptr, ptr %26, align 8
  tail call void @llvm.memset.p0.i64(ptr noundef nonnull align 8 dereferenceable(24) %2, i8 0, i64 24, i1 false)
  store i32 %23, ptr %2, align 8
  %28 = icmp eq i32 %25, 0
  br i1 %28, label %_ZL12copy_addressP8_addressPKS_.exit1.thread, label %_ZL12copy_addressP8_addressPKS_.exit1

_ZL12copy_addressP8_addressPKS_.exit1.thread:     ; preds = %_ZL12free_addressP8_address.exit
  %29 = getelementptr inbounds i8, ptr %0, i64 192
  %30 = load i16, ptr %29, align 8
  store i16 %30, ptr %21, align 8
  br label %_ZL12free_addressP8_address.exit4

_ZL12copy_addressP8_addressPKS_.exit1:            ; preds = %_ZL12free_addressP8_address.exit
  %31 = sext i32 %25 to i64
  %32 = tail call noalias ptr @wmem_memdup(ptr noundef null, ptr noundef %27, i64 noundef %31)
  %33 = getelementptr inbounds i8, ptr %0, i64 152
  store ptr %32, ptr %33, align 8
  store ptr %32, ptr %6, align 8
  store i32 %25, ptr %4, align 4
  %.pre25 = load i32, ptr %22, align 8
  %.pre26 = load i32, ptr %24, align 4
  %34 = icmp sgt i32 %.pre26, 0
  %35 = getelementptr inbounds i8, ptr %0, i64 192
  %36 = load i16, ptr %35, align 8
  store i16 %36, ptr %21, align 8
  %.not.i.i2 = icmp ne i32 %.pre25, 0
  %or.cond20 = select i1 %.not.i.i2, i1 %34, i1 false
  br i1 %or.cond20, label %37, label %_ZL12free_addressP8_address.exit4

37:                                               ; preds = %_ZL12copy_addressP8_addressPKS_.exit1
  %38 = getelementptr inbounds i8, ptr %0, i64 184
  %39 = load ptr, ptr %38, align 8
  %.not6.i.i3 = icmp eq ptr %39, null
  br i1 %.not6.i.i3, label %_ZL12free_addressP8_address.exit4, label %40

40:                                               ; preds = %37
  tail call void @wmem_free(ptr noundef null, ptr noundef nonnull %39)
  br label %_ZL12free_addressP8_address.exit4

_ZL12free_addressP8_address.exit4:                ; preds = %_ZL12copy_addressP8_addressPKS_.exit1.thread, %_ZL12copy_addressP8_addressPKS_.exit1, %37, %40
  %41 = phi ptr [ %29, %_ZL12copy_addressP8_addressPKS_.exit1.thread ], [ %35, %_ZL12copy_addressP8_addressPKS_.exit1 ], [ %35, %37 ], [ %35, %40 ]
  tail call void @llvm.memset.p0.i64(ptr noundef nonnull align 8 dereferenceable(24) %22, i8 0, i64 24, i1 false)
  store i32 %3, ptr %22, align 8
  br i1 %7, label %_ZL12copy_addressP8_addressPKS_.exit5.thread, label %_ZL12copy_addressP8_addressPKS_.exit5

_ZL12copy_addressP8_addressPKS_.exit5:            ; preds = %_ZL12free_addressP8_address.exit4
  %42 = sext i32 %5 to i64
  %43 = tail call noalias ptr @wmem_memdup(ptr noundef null, ptr noundef %.sroa.8.030, i64 noundef %42)
  %44 = getelementptr inbounds i8, ptr %0, i64 184
  store ptr %43, ptr %44, align 8
  store ptr %43, ptr %26, align 8
  store i32 %5, ptr %24, align 4
  store i16 %20, ptr %41, align 8
  %.not.i.i6 = icmp eq i32 %3, 0
  %45 = icmp slt i32 %5, 1
  %or.cond21.not23 = or i1 %.not.i.i6, %45
  %.not6.i.i7 = icmp eq ptr %.sroa.8.030, null
  %or.cond22 = select i1 %or.cond21.not23, i1 true, i1 %.not6.i.i7
  br i1 %or.cond22, label %_ZL12free_addressP8_address.exit8, label %46

_ZL12copy_addressP8_addressPKS_.exit5.thread:     ; preds = %_ZL12free_addressP8_address.exit4
  store i16 %20, ptr %41, align 8
  br label %_ZL12free_addressP8_address.exit8

46:                                               ; preds = %_ZL12copy_addressP8_addressPKS_.exit5
  tail call void @wmem_free(ptr noundef null, ptr noundef nonnull %.sroa.8.030)
  br label %_ZL12free_addressP8_address.exit8

_ZL12free_addressP8_address.exit8:                ; preds = %_ZL12copy_addressP8_addressPKS_.exit5.thread, %_ZL12copy_addressP8_addressPKS_.exit5, %46
  tail call void @_ZN15TCPStreamDialog9fillGraphEbb(ptr noundef nonnull align 8 dereferenceable(584) %0, i1 noundef zeroext true, i1 noundef zeroext false)
  ret void
}